target datalayout = "e-m:e-p270:32:32-p271:32:32-p272:64:64-i64:64-i128:128-f80:128-n8:16:32:64-S128"
target triple = "x86_64-pc-linux-gnu"

%struct.semholder_s = type { ptr, ptr, ptr, ptr, i16 }
%struct.dq_queue_s = type { ptr, ptr }
%struct.sem_s = type { i16, i8, %struct.dq_queue_s, ptr }
%struct.tcb_s = type { ptr, ptr, ptr, i32, i8, i8, ptr, %union.entry_u, i8, i8, i8, ptr, i16, i16, i16, %struct.wdog_s, i64, ptr, ptr, ptr, %struct.sigset_s, %struct.sigset_s, %struct.sq_queue_s, %struct.sq_queue_s, %struct.siginfo, ptr, %struct.xcptcontext, [32 x i8] }
%union.entry_u = type { ptr }
%struct.wdog_s = type { ptr, i64, ptr, i64 }
%struct.sigset_s = type { [2 x i32] }
%struct.sq_queue_s = type { ptr, ptr }
%struct.siginfo = type { i8, i8, i8, %union.sigval, i32, i32, ptr }
%union.sigval = type { ptr }
%struct.xcptcontext = type { ptr, i64, i64, i64, [90 x i64] }

@g_freeholders = internal global ptr null, align 8

; Function Attrs: nounwind uwtable
define internal void @nxsem_freeholder(ptr noundef %0, ptr noundef %1) #0 {
  %3 = alloca ptr, align 8
  %4 = alloca ptr, align 8
  %5 = alloca ptr, align 8
  store ptr %0, ptr %3, align 8
  store ptr %1, ptr %4, align 8
  %6 = load ptr, ptr %4, align 8
  %7 = getelementptr inbounds %struct.semholder_s, ptr %6, i32 0, i32 3
  %8 = load ptr, ptr %7, align 8
  %9 = getelementptr inbounds %struct.tcb_s, ptr %8, i32 0, i32 11
  store ptr %9, ptr %5, align 8
  br label %10

10:                                               ; preds = %25, %2
  %11 = load ptr, ptr %5, align 8
  %12 = load ptr, ptr %11, align 8
  %13 = icmp ne ptr %12, null
  br i1 %13, label %14, label %29

14:                                               ; preds = %10
  %15 = load ptr, ptr %5, align 8
  %16 = load ptr, ptr %15, align 8
  %17 = load ptr, ptr %4, align 8
  %18 = icmp eq ptr %16, %17
  br i1 %18, label %19, label %24

19:                                               ; preds = %14
  %20 = load ptr, ptr %4, align 8
  %21 = getelementptr inbounds %struct.semholder_s, ptr %20, i32 0, i32 1
  %22 = load ptr, ptr %21, align 8
  %23 = load ptr, ptr %5, align 8
  store ptr %22, ptr %23, align 8
  br label %29

24:                                               ; preds = %14
  br label %25

25:                                               ; preds = %24
  %26 = load ptr, ptr %5, align 8
  %27 = load ptr, ptr %26, align 8
  %28 = getelementptr inbounds %struct.semholder_s, ptr %27, i32 0, i32 1
  store ptr %28, ptr %5, align 8
  br label %10, !llvm.loop !11

29:                                               ; preds = %19, %10
  %30 = load ptr, ptr %4, align 8
  %31 = getelementptr inbounds %struct.semholder_s, ptr %30, i32 0, i32 1
  store ptr null, ptr %31, align 8
  %32 = load ptr, ptr %4, align 8
  %33 = getelementptr inbounds %struct.semholder_s, ptr %32, i32 0, i32 2
  store ptr null, ptr %33, align 8
  %34 = load ptr, ptr %4, align 8
  %35 = getelementptr inbounds %struct.semholder_s, ptr %34, i32 0, i32 3
  store ptr null, ptr %35, align 8
  %36 = load ptr, ptr %4, align 8
  %37 = getelementptr inbounds %struct.semholder_s, ptr %36, i32 0, i32 4
  store i16 0, ptr %37, align 8
  %38 = load ptr, ptr %3, align 8
  %39 = getelementptr inbounds %struct.sem_s, ptr %38, i32 0, i32 3
  store ptr %39, ptr %5, align 8
  br label %40

40:                                               ; preds = %55, %29
  %41 = load ptr, ptr %5, align 8
  %42 = load ptr, ptr %41, align 8
  %43 = icmp ne ptr %42, null
  br i1 %43, label %44, label %59

44:                                               ; preds = %40
  %45 = load ptr, ptr %5, align 8
  %46 = load ptr, ptr %45, align 8
  %47 = load ptr, ptr %4, align 8
  %48 = icmp eq ptr %46, %47
  br i1 %48, label %49, label %54

49:                                               ; preds = %44
  %50 = load ptr, ptr %4, align 8
  %51 = getelementptr inbounds %struct.semholder_s, ptr %50, i32 0, i32 0
  %52 = load ptr, ptr %51, align 8
  %53 = load ptr, ptr %5, align 8
  store ptr %52, ptr %53, align 8
  br label %59

54:                                               ; preds = %44
  br label %55

55:                                               ; preds = %54
  %56 = load ptr, ptr %5, align 8
  %57 = load ptr, ptr %56, align 8
  %58 = getelementptr inbounds %struct.semholder_s, ptr %57, i32 0, i32 0
  store ptr %58, ptr %5, align 8
  br label %40, !llvm.loop !12

59:                                               ; preds = %49, %40
  %60 = load ptr, ptr @g_freeholders, align 8
  %61 = load ptr, ptr %4, align 8
  %62 = getelementptr inbounds %struct.semholder_s, ptr %61, i32 0, i32 0
  store ptr %60, ptr %62, align 8
  %63 = load ptr, ptr %4, align 8
  store ptr %63, ptr @g_freeholders, align 8
  ret void
}

; Function Attrs: nounwind uwtable
define void @nxsem_release_all(ptr noundef %0) #0 {
  %2 = alloca ptr, align 8
  %3 = alloca ptr, align 8
  %4 = alloca ptr, align 8
  store ptr %0, ptr %2, align 8
  br label %5

5:                                                ; preds = %10, %1
  %6 = load ptr, ptr %2, align 8
  %7 = getelementptr inbounds %struct.tcb_s, ptr %6, i32 0, i32 11
  %8 = load ptr, ptr %7, align 8
  store ptr %8, ptr %3, align 8
  %9 = icmp ne ptr %8, null
  br i1 %9, label %10, label %20

10:                                               ; preds = %5
  %11 = load ptr, ptr %3, align 8
  %12 = getelementptr inbounds %struct.semholder_s, ptr %11, i32 0, i32 2
  %13 = load ptr, ptr %12, align 8
  store ptr %13, ptr %4, align 8
  %14 = load ptr, ptr %4, align 8
  %15 = load ptr, ptr %3, align 8
  call void @nxsem_freeholder(ptr noundef %14, ptr noundef %15)
  %16 = load ptr, ptr %4, align 8
  %17 = getelementptr inbounds %struct.sem_s, ptr %16, i32 0, i32 0
  %18 = load volatile i16, ptr %17, align 8
  %19 = add i16 %18, 1
  store volatile i16 %19, ptr %17, align 8
  br label %5, !llvm.loop !10

20:                                               ; preds = %5
  ret void
}