; Function Attrs: nofree norecurse nounwind uwtable
define void @nxsem_release_all(ptr noundef readonly captures(none) %0) local_unnamed_addr #3 {
  %2 = getelementptr inbounds nuw i8, ptr %0, i64 56
  %3 = load ptr, ptr %2, align 8
  %.not7 = icmp eq ptr %3, null
  br i1 %.not7, label %._crit_edge, label %.lr.ph8

.lr.ph8:                                          ; preds = %1, %nxsem_freeholder.exit
  %4 = phi ptr [ %30, %nxsem_freeholder.exit ], [ %3, %1 ]
  %5 = getelementptr inbounds nuw i8, ptr %4, i64 16
  %6 = load ptr, ptr %5, align 8
  %7 = getelementptr inbounds nuw i8, ptr %4, i64 24
  %8 = load ptr, ptr %7, align 8
  %9 = getelementptr inbounds nuw i8, ptr %8, i64 56
  %10 = load ptr, ptr %9, align 8
  %.not28.i = icmp eq ptr %10, null
  br i1 %.not28.i, label %.loopexit25.i, label %.lr.ph.i.preheader

.lr.ph.i.preheader:                               ; preds = %.lr.ph8
  %11 = icmp eq ptr %10, %4
  br i1 %11, label %.lr.ph.i._crit_edge, label %.lr.ph

.lr.ph:                                           ; preds = %.lr.ph.i.preheader, %.lr.ph.i
  %12 = phi ptr [ %14, %.lr.ph.i ], [ %10, %.lr.ph.i.preheader ]
  %13 = getelementptr inbounds nuw i8, ptr %12, i64 8
  %14 = load ptr, ptr %13, align 8
  %.not.i = icmp eq ptr %14, null
  br i1 %.not.i, label %.loopexit25.i, label %.lr.ph.i, !llvm.loop !8

.lr.ph.i:                                         ; preds = %.lr.ph
  %15 = icmp eq ptr %14, %4
  br i1 %15, label %.lr.ph.i._crit_edge.loopexit, label %.lr.ph, !llvm.loop !8

.lr.ph.i._crit_edge.loopexit:                     ; preds = %.lr.ph.i
  %16 = getelementptr inbounds nuw i8, ptr %12, i64 8
  br label %.lr.ph.i._crit_edge

.lr.ph.i._crit_edge:                              ; preds = %.lr.ph.i._crit_edge.loopexit, %.lr.ph.i.preheader
  %.029.i.lcssa = phi ptr [ %9, %.lr.ph.i.preheader ], [ %16, %.lr.ph.i._crit_edge.loopexit ]
  %17 = getelementptr inbounds nuw i8, ptr %4, i64 8
  %18 = load ptr, ptr %17, align 8
  store ptr %18, ptr %.029.i.lcssa, align 8
  br label %.loopexit25.i

.loopexit25.i:                                    ; preds = %.lr.ph, %.lr.ph.i._crit_edge, %.lr.ph8
  %19 = getelementptr inbounds nuw i8, ptr %4, i64 8
  %20 = getelementptr inbounds nuw i8, ptr %6, i64 24
  tail call void @llvm.memset.p0.i64(ptr noundef nonnull align 8 dereferenceable(26) %19, i8 0, i64 26, i1 false)
  br label %21

21:                                               ; preds = %23, %.loopexit25.i
  %.1.i = phi ptr [ %20, %.loopexit25.i ], [ %22, %23 ]
  %22 = load ptr, ptr %.1.i, align 8
  %.not24.i = icmp eq ptr %22, null
  br i1 %.not24.i, label %nxsem_freeholder.exit, label %23

23:                                               ; preds = %21
  %24 = icmp eq ptr %22, %4
  br i1 %24, label %25, label %21, !llvm.loop !9

25:                                               ; preds = %23
  %26 = load ptr, ptr %4, align 8
  store ptr %26, ptr %.1.i, align 8
  br label %nxsem_freeholder.exit

nxsem_freeholder.exit:                            ; preds = %21, %25
  %27 = load ptr, ptr @g_freeholders, align 8
  store ptr %27, ptr %4, align 8
  store ptr %4, ptr @g_freeholders, align 8
  %28 = load volatile i16, ptr %6, align 8
  %29 = add i16 %28, 1
  store volatile i16 %29, ptr %6, align 8
  %30 = load ptr, ptr %2, align 8
  %.not = icmp eq ptr %30, null
  br i1 %.not, label %._crit_edge, label %.lr.ph8, !llvm.loop !14

._crit_edge:                                      ; preds = %nxsem_freeholder.exit, %1
  ret void
}